	.file	"BufferOverflow.c"
	.text
	.section	.rodata
.LC0:
	.string	"goodpass"
	.text
	.globl	IsPasswordOK
	.type	IsPasswordOK, @function
IsPasswordOK:
.LFB6:
	.cfi_startproc
	endbr64
	pushq	%rbp
	.cfi_def_cfa_offset 16
	.cfi_offset 6, -16
	movq	%rsp, %rbp
	.cfi_def_cfa_register 6
	subq	$32, %rsp
	movq	%fs:40, %rax
	movq	%rax, -8(%rbp)
	xorl	%eax, %eax
	leaq	-20(%rbp), %rax
	movq	%rax, %rdi
	movl	$0, %eax
	call	gets@PLT
	leaq	-20(%rbp), %rax
	leaq	.LC0(%rip), %rsi
	movq	%rax, %rdi
	call	strcmp@PLT
	testl	%eax, %eax
	sete	%al
	movq	-8(%rbp), %rdx
	xorq	%fs:40, %rdx
	je	.L3
	call	__stack_chk_fail@PLT
.L3:
	leave
	.cfi_def_cfa 7, 8
	ret
	.cfi_endproc
.LFE6:
	.size	IsPasswordOK, .-IsPasswordOK
	.section	.rodata
.LC1:
	.string	"Enter password:"
.LC2:
	.string	"Access denied"
	.text
	.globl	main
	.type	main, @function
main:
.LFB7:
	.cfi_startproc
	endbr64
	pushq	%rbp
	.cfi_def_cfa_offset 16
	.cfi_offset 6, -16
	movq	%rsp, %rbp
	.cfi_def_cfa_register 6
	subq	$16, %rsp
	leaq	.LC1(%rip), %rdi
	call	puts@PLT
	call	IsPasswordOK
	movb	%al, -1(%rbp)
	movzbl	-1(%rbp), %eax
	xorl	$1, %eax
	testb	%al, %al
	je	.L5
	leaq	.LC2(%rip), %rdi
	call	puts@PLT
	movl	$-1, %edi
	call	exit@PLT
.L5:
	movl	$0, %eax
	leave
	.cfi_def_cfa 7, 8
	ret
	.cfi_endproc
.LFE7:
	.size	main, .-main
	.ident	"GCC: (Ubuntu 9.4.0-1ubuntu1~20.04.2) 9.4.0"
	.section	.note.GNU-stack,"",@progbits
	.section	.note.gnu.property,"a"
	.align 8
	.long	 1f - 0f
	.long	 4f - 1f
	.long	 5
0:
	.string	 "GNU"
1:
	.align 8
	.long	 0xc0000002
	.long	 3f - 2f
2:
	.long	 0x3
3:
	.align 8
4:
